target datalayout = "e-m:e-p270:32:32-p271:32:32-p272:64:64-i64:64-i128:128-f80:128-n8:16:32:64-S128"
target triple = "x86_64-pc-linux-gnu"

%struct.Vec_Int_t_ = type { i32, i32, ptr }

@.str.14 = private unnamed_addr constant [2 x i8] c"\0A\00", align 1
@.str.18 = private unnamed_addr constant [51 x i8] c"Solution:  In = %d  Div = %d  Node = %d  Out = %d\0A\00", align 1
@.str.19 = private unnamed_addr constant [9 x i8] c"x%-2d = \00", align 1
@.str.20 = private unnamed_addr constant [6 x i8] c"  %c \00", align 1
@.str.29 = private unnamed_addr constant [3 x i8] c"%d\00", align 1
@.str.30 = private unnamed_addr constant [5 x i8] c"%c%c\00", align 1

; Function Attrs: inlinehint nounwind uwtable
define internal i32 @Abc_LitIsCompl(i32 noundef %0) #2 {
  %2 = alloca i32, align 4
  store i32 %0, ptr %2, align 4, !tbaa !19
  %3 = load i32, ptr %2, align 4, !tbaa !19
  %4 = and i32 %3, 1
  ret i32 %4
}

; Function Attrs: inlinehint nounwind uwtable
define internal i32 @Abc_Lit2Var(i32 noundef %0) #2 {
  %2 = alloca i32, align 4
  store i32 %0, ptr %2, align 4, !tbaa !19
  %3 = load i32, ptr %2, align 4, !tbaa !19
  %4 = ashr i32 %3, 1
  ret i32 %4
}

; Function Attrs: inlinehint nounwind uwtable
define internal i32 @Res6_LitChar(i32 noundef %0, i32 noundef %1) #2 {
  %3 = alloca i32, align 4
  %4 = alloca i32, align 4
  store i32 %0, ptr %3, align 4, !tbaa !19
  store i32 %1, ptr %4, align 4, !tbaa !19
  %5 = load i32, ptr %3, align 4, !tbaa !19
  %6 = call i32 @Abc_Lit2Var(i32 noundef %5)
  %7 = load i32, ptr %4, align 4, !tbaa !19
  %8 = icmp slt i32 %6, %7
  br i1 %8, label %9, label %20

9:                                                ; preds = %2
  %10 = load i32, ptr %4, align 4, !tbaa !19
  %11 = icmp slt i32 %10, 28
  br i1 %11, label %12, label %17

12:                                               ; preds = %9
  %13 = load i32, ptr %3, align 4, !tbaa !19
  %14 = call i32 @Abc_Lit2Var(i32 noundef %13)
  %15 = add nsw i32 97, %14
  %16 = sub nsw i32 %15, 1
  br label %18

17:                                               ; preds = %9
  br label %18

18:                                               ; preds = %17, %12
  %19 = phi i32 [ %16, %12 ], [ 100, %17 ]
  br label %21

20:                                               ; preds = %2
  br label %21

21:                                               ; preds = %20, %18
  %22 = phi i32 [ %19, %18 ], [ 120, %20 ]
  ret i32 %22
}

; Function Attrs: inlinehint nounwind uwtable
define internal i32 @Res6_LitSign(i32 noundef %0) #2 {
  %2 = alloca i32, align 4
  store i32 %0, ptr %2, align 4, !tbaa !19
  %3 = load i32, ptr %2, align 4, !tbaa !19
  %4 = call i32 @Abc_LitIsCompl(i32 noundef %3)
  %5 = icmp ne i32 %4, 0
  %6 = select i1 %5, i32 126, i32 32
  ret i32 %6
}

; Function Attrs: inlinehint nounwind uwtable
define internal void @Res6_LitPrint(i32 noundef %0, i32 noundef %1) #2 {
  %3 = alloca i32, align 4
  %4 = alloca i32, align 4
  store i32 %0, ptr %3, align 4, !tbaa !19
  store i32 %1, ptr %4, align 4, !tbaa !19
  %5 = load i32, ptr %3, align 4, !tbaa !19
  %6 = icmp slt i32 %5, 2
  br i1 %6, label %7, label %10

7:                                                ; preds = %2
  %8 = load i32, ptr %3, align 4, !tbaa !19
  %9 = call i32 (ptr, ...) @printf(ptr noundef @.str.29, i32 noundef %8)
  br label %29

10:                                               ; preds = %2
  %11 = load i32, ptr %3, align 4, !tbaa !19
  %12 = call i32 @Res6_LitSign(i32 noundef %11)
  %13 = load i32, ptr %3, align 4, !tbaa !19
  %14 = load i32, ptr %4, align 4, !tbaa !19
  %15 = call i32 @Res6_LitChar(i32 noundef %13, i32 noundef %14)
  %16 = call i32 (ptr, ...) @printf(ptr noundef @.str.30, i32 noundef %12, i32 noundef %15)
  %17 = load i32, ptr %3, align 4, !tbaa !19
  %18 = call i32 @Abc_Lit2Var(i32 noundef %17)
  %19 = load i32, ptr %4, align 4, !tbaa !19
  %20 = icmp sge i32 %18, %19
  br i1 %20, label %24, label %21

21:                                               ; preds = %10
  %22 = load i32, ptr %4, align 4, !tbaa !19
  %23 = icmp sge i32 %22, 28
  br i1 %23, label %24, label %28

24:                                               ; preds = %21, %10
  %25 = load i32, ptr %3, align 4, !tbaa !19
  %26 = call i32 @Abc_Lit2Var(i32 noundef %25)
  %27 = call i32 (ptr, ...) @printf(ptr noundef @.str.29, i32 noundef %26)
  br label %28

28:                                               ; preds = %24, %21
  br label %29

29:                                               ; preds = %28, %7
  ret void
}

; Function Attrs: inlinehint nounwind uwtable
define internal ptr @Vec_IntEntryP(ptr noundef %0, i32 noundef %1) #2 {
  %3 = alloca ptr, align 8
  %4 = alloca i32, align 4
  store ptr %0, ptr %3, align 8, !tbaa !54
  store i32 %1, ptr %4, align 4, !tbaa !19
  %5 = load ptr, ptr %3, align 8, !tbaa !54
  %6 = getelementptr inbounds nuw %struct.Vec_Int_t_, ptr %5, i32 0, i32 2
  %7 = load ptr, ptr %6, align 8, !tbaa !56
  %8 = load i32, ptr %4, align 4, !tbaa !19
  %9 = sext i32 %8 to i64
  %10 = getelementptr inbounds i32, ptr %7, i64 %9
  ret ptr %10
}

; Function Attrs: inlinehint nounwind uwtable
define internal i32 @Vec_IntSize(ptr noundef %0) #2 {
  %2 = alloca ptr, align 8
  store ptr %0, ptr %2, align 8, !tbaa !54
  %3 = load ptr, ptr %2, align 8, !tbaa !54
  %4 = getelementptr inbounds nuw %struct.Vec_Int_t_, ptr %3, i32 0, i32 1
  %5 = load i32, ptr %4, align 4, !tbaa !55
  ret i32 %5
}

; Function Attrs: nounwind uwtable
define void @Res6_PrintSolutionPla(ptr noundef %0, i32 noundef %1, i32 noundef %2) #0 {
  %4 = alloca ptr, align 8
  %5 = alloca i32, align 4
  %6 = alloca i32, align 4
  %7 = alloca i32, align 4
  %8 = alloca i32, align 4
  %9 = alloca ptr, align 8
  store ptr %0, ptr %4, align 8, !tbaa !54
  store i32 %1, ptr %5, align 4, !tbaa !19
  store i32 %2, ptr %6, align 4, !tbaa !19
  call void @llvm.lifetime.start.p0(i64 4, ptr %7) #11
  call void @llvm.lifetime.start.p0(i64 4, ptr %8) #11
  %10 = load ptr, ptr %4, align 8, !tbaa !54
  %11 = call i32 @Vec_IntSize(ptr noundef %10)
  %12 = sdiv i32 %11, 2
  %13 = sub nsw i32 %12, 1
  store i32 %13, ptr %8, align 4, !tbaa !19
  %14 = load i32, ptr %5, align 4, !tbaa !19
  %15 = load i32, ptr %6, align 4, !tbaa !19
  %16 = sub nsw i32 %15, 1
  %17 = load i32, ptr %8, align 4, !tbaa !19
  %18 = call i32 (ptr, ...) @printf(ptr noundef @.str.18, i32 noundef %14, i32 noundef %16, i32 noundef %17, i32 noundef 1)
  store i32 0, ptr %7, align 4, !tbaa !19
  br label %19

19:                                               ; preds = %62, %3
  %20 = load i32, ptr %7, align 4, !tbaa !19
  %21 = load i32, ptr %8, align 4, !tbaa !19
  %22 = icmp sle i32 %20, %21
  br i1 %22, label %23, label %65

23:                                               ; preds = %19
  call void @llvm.lifetime.start.p0(i64 8, ptr %9) #11
  %24 = load ptr, ptr %4, align 8, !tbaa !54
  %25 = load i32, ptr %7, align 4, !tbaa !19
  %26 = mul nsw i32 2, %25
  %27 = call ptr @Vec_IntEntryP(ptr noundef %24, i32 noundef %26)
  store ptr %27, ptr %9, align 8, !tbaa !78
  %28 = load i32, ptr %5, align 4, !tbaa !19
  %29 = add nsw i32 1, %28
  %30 = load i32, ptr %7, align 4, !tbaa !19
  %31 = add nsw i32 %29, %30
  %32 = call i32 (ptr, ...) @printf(ptr noundef @.str.19, i32 noundef %31)
  %33 = load ptr, ptr %9, align 8, !tbaa !78
  %34 = getelementptr inbounds i32, ptr %33, i64 0
  %35 = load i32, ptr %34, align 4, !tbaa !19
  %36 = load i32, ptr %5, align 4, !tbaa !19
  %37 = add nsw i32 1, %36
  call void @Res6_LitPrint(i32 noundef %35, i32 noundef %37)
  %38 = load ptr, ptr %9, align 8, !tbaa !78
  %39 = getelementptr inbounds i32, ptr %38, i64 0
  %40 = load i32, ptr %39, align 4, !tbaa !19
  %41 = load ptr, ptr %9, align 8, !tbaa !78
  %42 = getelementptr inbounds i32, ptr %41, i64 1
  %43 = load i32, ptr %42, align 4, !tbaa !19
  %44 = icmp ne i32 %40, %43
  br i1 %44, label %45, label %60

45:                                               ; preds = %23
  %46 = load ptr, ptr %9, align 8, !tbaa !78
  %47 = getelementptr inbounds i32, ptr %46, i64 0
  %48 = load i32, ptr %47, align 4, !tbaa !19
  %49 = load ptr, ptr %9, align 8, !tbaa !78
  %50 = getelementptr inbounds i32, ptr %49, i64 1
  %51 = load i32, ptr %50, align 4, !tbaa !19
  %52 = icmp slt i32 %48, %51
  %53 = select i1 %52, i32 38, i32 94
  %54 = call i32 (ptr, ...) @printf(ptr noundef @.str.20, i32 noundef %53)
  %55 = load ptr, ptr %9, align 8, !tbaa !78
  %56 = getelementptr inbounds i32, ptr %55, i64 1
  %57 = load i32, ptr %56, align 4, !tbaa !19
  %58 = load i32, ptr %5, align 4, !tbaa !19
  %59 = add nsw i32 1, %58
  call void @Res6_LitPrint(i32 noundef %57, i32 noundef %59)
  br label %60

60:                                               ; preds = %45, %23
  %61 = call i32 (ptr, ...) @printf(ptr noundef @.str.14)
  call void @llvm.lifetime.end.p0(i64 8, ptr %9) #11
  br label %62

62:                                               ; preds = %60
  %63 = load i32, ptr %7, align 4, !tbaa !19
  %64 = add nsw i32 %63, 1
  store i32 %64, ptr %7, align 4, !tbaa !19
  br label %19, !llvm.loop !93

65:                                               ; preds = %19
  call void @llvm.lifetime.end.p0(i64 4, ptr %8) #11
  call void @llvm.lifetime.end.p0(i64 4, ptr %7) #11
  ret void
}