; Function Attrs: nofree nounwind uwtable
define void @Res6_PrintSolutionPla(ptr noundef readonly captures(none) %0, i32 noundef %1, i32 noundef %2) local_unnamed_addr #7 {
  %4 = getelementptr i8, ptr %0, i64 4
  %.val = load i32, ptr %4, align 4, !tbaa !25
  %5 = sdiv i32 %.val, 2
  %6 = add nsw i32 %5, -1
  %7 = add nsw i32 %2, -1
  %8 = tail call i32 (ptr, ...) @printf(ptr noundef nonnull dereferenceable(1) @.str.18, i32 noundef %1, i32 noundef %7, i32 noundef %6, i32 noundef 1)
  %.not.not29 = icmp sgt i32 %.val, 1
  br i1 %.not.not29, label %.lr.ph, label %._crit_edge

.lr.ph:                                           ; preds = %3
  %9 = getelementptr i8, ptr %0, i64 8
  %10 = add nsw i32 %1, 1
  %11 = icmp samesign ult i32 %10, 28
  %12 = icmp sgt i32 %1, 26
  %wide.trip.count = zext nneg i32 %5 to i64
  br label %13

13:                                               ; preds = %.lr.ph, %Res6_LitPrint.exit26
  %indvars.iv = phi i64 [ 0, %.lr.ph ], [ %indvars.iv.next, %Res6_LitPrint.exit26 ]
  %.val20 = load ptr, ptr %9, align 8, !tbaa !29
  %.idx = shl nuw nsw i64 %indvars.iv, 3
  %14 = getelementptr inbounds nuw i8, ptr %.val20, i64 %.idx
  %15 = trunc i64 %indvars.iv to i32
  %16 = add i32 %10, %15
  %17 = tail call i32 (ptr, ...) @printf(ptr noundef nonnull dereferenceable(1) @.str.19, i32 noundef %16)
  %18 = load i32, ptr %14, align 4, !tbaa !3
  %19 = icmp slt i32 %18, 2
  br i1 %19, label %.sink.split.i, label %20

20:                                               ; preds = %13
  %21 = and i32 %18, 1
  %.not.i.i = icmp eq i32 %21, 0
  %22 = select i1 %.not.i.i, i32 32, i32 126
  %23 = lshr i32 %18, 1
  %.not27 = icmp sgt i32 %23, %1
  %24 = add nuw nsw i32 %23, 96
  %spec.select.i.i = select i1 %11, i32 %24, i32 100
  %25 = select i1 %.not27, i32 120, i32 %spec.select.i.i
  %26 = tail call i32 (ptr, ...) @printf(ptr noundef nonnull dereferenceable(1) @.str.30, i32 noundef %22, i32 noundef %25)
  %or.cond.i = or i1 %12, %.not27
  br i1 %or.cond.i, label %.sink.split.i, label %Res6_LitPrint.exit

.sink.split.i:                                    ; preds = %20, %13
  %.sink.i = phi i32 [ %18, %13 ], [ %23, %20 ]
  %27 = tail call i32 (ptr, ...) @printf(ptr noundef nonnull dereferenceable(1) @.str.29, i32 noundef %.sink.i)
  br label %Res6_LitPrint.exit

Res6_LitPrint.exit:                               ; preds = %20, %.sink.split.i
  %28 = load i32, ptr %14, align 4, !tbaa !3
  %29 = getelementptr inbounds nuw i8, ptr %14, i64 4
  %30 = load i32, ptr %29, align 4, !tbaa !3
  %.not = icmp eq i32 %28, %30
  br i1 %.not, label %Res6_LitPrint.exit26, label %31

31:                                               ; preds = %Res6_LitPrint.exit
  %32 = icmp slt i32 %28, %30
  %33 = select i1 %32, i32 38, i32 94
  %34 = tail call i32 (ptr, ...) @printf(ptr noundef nonnull dereferenceable(1) @.str.20, i32 noundef %33)
  %35 = load i32, ptr %29, align 4, !tbaa !3
  %36 = icmp slt i32 %35, 2
  br i1 %36, label %.sink.split.i24, label %37

37:                                               ; preds = %31
  %38 = and i32 %35, 1
  %.not.i.i21 = icmp eq i32 %38, 0
  %39 = select i1 %.not.i.i21, i32 32, i32 126
  %40 = lshr i32 %35, 1
  %.not28 = icmp sgt i32 %40, %1
  %41 = add nuw nsw i32 %40, 96
  %spec.select.i.i22 = select i1 %11, i32 %41, i32 100
  %42 = select i1 %.not28, i32 120, i32 %spec.select.i.i22
  %43 = tail call i32 (ptr, ...) @printf(ptr noundef nonnull dereferenceable(1) @.str.30, i32 noundef %39, i32 noundef %42)
  %or.cond.i23 = or i1 %12, %.not28
  br i1 %or.cond.i23, label %.sink.split.i24, label %Res6_LitPrint.exit26

.sink.split.i24:                                  ; preds = %37, %31
  %.sink.i25 = phi i32 [ %35, %31 ], [ %40, %37 ]
  %44 = tail call i32 (ptr, ...) @printf(ptr noundef nonnull dereferenceable(1) @.str.29, i32 noundef %.sink.i25)
  br label %Res6_LitPrint.exit26

Res6_LitPrint.exit26:                             ; preds = %.sink.split.i24, %37, %Res6_LitPrint.exit
  %putchar = tail call i32 @putchar(i32 10)
  %indvars.iv.next = add nuw nsw i64 %indvars.iv, 1
  %exitcond.not = icmp eq i64 %indvars.iv.next, %wide.trip.count
  br i1 %exitcond.not, label %._crit_edge, label %13, !llvm.loop !88

._crit_edge:                                      ; preds = %Res6_LitPrint.exit26, %3
  ret void
}